target datalayout = "e-m:e-p270:32:32-p271:32:32-p272:64:64-i64:64-i128:128-f80:128-n8:16:32:64-S128"
target triple = "x86_64-pc-linux-gnu"

%class.Metadata = type { ptr }
%class.AccessFlags = type { i32 }
%class.Method = type { %class.Metadata, ptr, ptr, ptr, ptr, %class.AccessFlags, i32, %class.MethodFlags, i16, %class.JfrTraceFlag, ptr, ptr, ptr, ptr }
%class.MethodFlags = type { i32 }
%class.JfrTraceFlag = type { i16 }
%class.MethodData = type { %class.Metadata, ptr, i32, i32, %class.Mutex, %"class.MethodData::CompilerCounters", i64, i64, i64, i64, i32, %class.InvocationCounter, %class.InvocationCounter, i32, i32, i32, i32, i32, i16, i16, i32, ptr, i32, i32, i32, i32, [1 x i64] }
%class.Mutex = type { ptr, %class.PlatformMonitor, ptr }
%class.PlatformMonitor = type { %class.PlatformMutex, %union.pthread_cond_t }
%class.PlatformMutex = type { %union.pthread_mutex_t }
%union.pthread_mutex_t = type { %struct.__pthread_mutex_s }
%struct.__pthread_mutex_s = type { i32, i32, i32, i32, i32, i16, i16, %struct.__pthread_internal_list }
%struct.__pthread_internal_list = type { ptr, ptr }
%union.pthread_cond_t = type { %struct.__pthread_cond_s }
%struct.__pthread_cond_s = type { %union.__atomic_wide_counter, %union.__atomic_wide_counter, [2 x i32], [2 x i32], i32, i32, [2 x i32] }
%union.__atomic_wide_counter = type { i64 }
%"class.MethodData::CompilerCounters" = type { i32, i32, i32, %union.anon.5 }
%union.anon.5 = type { i64, [56 x i8] }
%class.InvocationCounter = type { i32 }
%class.ScopeDesc = type { ptr, i32, i8, i8, i8, i8, i8, i32, i32, i32, i32, i32, ptr, ptr }

@PrintTieredEvents = external global i8, align 1

; Function Attrs: mustprogress nounwind uwtable
define linkonce_odr hidden noundef ptr @_ZN10MethodData16backedge_counterEv(ptr noundef nonnull align 8 dereferenceable(312) %0) #1 comdat align 2 {
  %2 = alloca ptr, align 8
  store ptr %0, ptr %2, align 8
  %3 = load ptr, ptr %2, align 8
  %4 = getelementptr inbounds %class.MethodData, ptr %3, i32 0, i32 12
  ret ptr %4
}

; Function Attrs: mustprogress nounwind uwtable
define linkonce_odr hidden noundef i32 @_ZNK17InvocationCounter5countEv(ptr noundef nonnull align 4 dereferenceable(4) %0) #1 comdat align 2 {
  %2 = alloca ptr, align 8
  store ptr %0, ptr %2, align 8
  %3 = load ptr, ptr %2, align 8
  %4 = getelementptr inbounds %class.InvocationCounter, ptr %3, i32 0, i32 0
  %5 = load i32, ptr %4, align 4
  %6 = lshr i32 %5, 1
  ret i32 %6
}

; Function Attrs: mustprogress nounwind uwtable
define linkonce_odr hidden noundef zeroext i1 @_ZNK17InvocationCounter5carryEv(ptr noundef nonnull align 4 dereferenceable(4) %0) #1 comdat align 2 {
  %2 = alloca ptr, align 8
  store ptr %0, ptr %2, align 8
  %3 = load ptr, ptr %2, align 8
  %4 = getelementptr inbounds %class.InvocationCounter, ptr %3, i32 0, i32 0
  %5 = load i32, ptr %4, align 4
  %6 = and i32 %5, 1
  %7 = icmp ne i32 %6, 0
  ret i1 %7
}

; Function Attrs: mustprogress nounwind uwtable
define linkonce_odr hidden noundef ptr @_ZN10MethodData18invocation_counterEv(ptr noundef nonnull align 8 dereferenceable(312) %0) #1 comdat align 2 {
  %2 = alloca ptr, align 8
  store ptr %0, ptr %2, align 8
  %3 = load ptr, ptr %2, align 8
  %4 = getelementptr inbounds %class.MethodData, ptr %3, i32 0, i32 11
  ret ptr %4
}

; Function Attrs: mustprogress nounwind uwtable
define linkonce_odr hidden noundef i32 @_ZN10MethodData14backedge_countEv(ptr noundef nonnull align 8 dereferenceable(312) %0) #1 comdat align 2 {
  %2 = alloca i32, align 4
  %3 = alloca ptr, align 8
  store ptr %0, ptr %3, align 8
  %4 = load ptr, ptr %3, align 8
  %5 = call noundef ptr @_ZN10MethodData16backedge_counterEv(ptr noundef nonnull align 8 dereferenceable(312) %4)
  %6 = call noundef zeroext i1 @_ZNK17InvocationCounter5carryEv(ptr noundef nonnull align 4 dereferenceable(4) %5)
  br i1 %6, label %7, label %8

7:                                                ; preds = %1
  store i32 1073741824, ptr %2, align 4
  br label %11

8:                                                ; preds = %1
  %9 = call noundef ptr @_ZN10MethodData16backedge_counterEv(ptr noundef nonnull align 8 dereferenceable(312) %4)
  %10 = call noundef i32 @_ZNK17InvocationCounter5countEv(ptr noundef nonnull align 4 dereferenceable(4) %9)
  store i32 %10, ptr %2, align 4
  br label %11

11:                                               ; preds = %8, %7
  %12 = load i32, ptr %2, align 4
  ret i32 %12
}

; Function Attrs: mustprogress nounwind uwtable
define linkonce_odr hidden noundef i32 @_ZN10MethodData16invocation_countEv(ptr noundef nonnull align 8 dereferenceable(312) %0) #1 comdat align 2 {
  %2 = alloca i32, align 4
  %3 = alloca ptr, align 8
  store ptr %0, ptr %3, align 8
  %4 = load ptr, ptr %3, align 8
  %5 = call noundef ptr @_ZN10MethodData18invocation_counterEv(ptr noundef nonnull align 8 dereferenceable(312) %4)
  %6 = call noundef zeroext i1 @_ZNK17InvocationCounter5carryEv(ptr noundef nonnull align 4 dereferenceable(4) %5)
  br i1 %6, label %7, label %8

7:                                                ; preds = %1
  store i32 1073741824, ptr %2, align 4
  br label %11

8:                                                ; preds = %1
  %9 = call noundef ptr @_ZN10MethodData18invocation_counterEv(ptr noundef nonnull align 8 dereferenceable(312) %4)
  %10 = call noundef i32 @_ZNK17InvocationCounter5countEv(ptr noundef nonnull align 4 dereferenceable(4) %9)
  store i32 %10, ptr %2, align 4
  br label %11

11:                                               ; preds = %8, %7
  %12 = load i32, ptr %2, align 4
  ret i32 %12
}

; Function Attrs: mustprogress nounwind uwtable
define linkonce_odr hidden void @_ZN10MethodData20reset_start_countersEv(ptr noundef nonnull align 8 dereferenceable(312) %0) #1 comdat align 2 {
  %2 = alloca ptr, align 8
  store ptr %0, ptr %2, align 8
  %3 = load ptr, ptr %2, align 8
  %4 = call noundef i32 @_ZN10MethodData16invocation_countEv(ptr noundef nonnull align 8 dereferenceable(312) %3)
  %5 = getelementptr inbounds %class.MethodData, ptr %3, i32 0, i32 13
  store i32 %4, ptr %5, align 4
  %6 = call noundef i32 @_ZN10MethodData14backedge_countEv(ptr noundef nonnull align 8 dereferenceable(312) %3)
  %7 = getelementptr inbounds %class.MethodData, ptr %3, i32 0, i32 14
  store i32 %6, ptr %7, align 8
  ret void
}

; Function Attrs: mustprogress nounwind uwtable
define linkonce_odr hidden noundef ptr @_ZNK6Method11method_dataEv(ptr noundef nonnull align 8 dereferenceable(88) %0) #1 comdat align 2 {
  %2 = alloca ptr, align 8
  store ptr %0, ptr %2, align 8
  %3 = load ptr, ptr %2, align 8
  %4 = getelementptr inbounds %class.Method, ptr %3, i32 0, i32 2
  %5 = load ptr, ptr %4, align 8
  ret ptr %5
}

; Function Attrs: mustprogress nounwind uwtable
define linkonce_odr hidden noundef ptr @_ZNK9ScopeDesc6methodEv(ptr noundef nonnull align 8 dereferenceable(56) %0) #1 comdat align 2 {
  %2 = alloca ptr, align 8
  store ptr %0, ptr %2, align 8
  %3 = load ptr, ptr %2, align 8
  %4 = getelementptr inbounds %class.ScopeDesc, ptr %3, i32 0, i32 0
  %5 = load ptr, ptr %4, align 8
  ret ptr %5
}

; Function Attrs: mustprogress nounwind uwtable
define hidden void @_ZN17CompilationPolicy9reprofileEP9ScopeDescb(ptr noundef %0, i1 noundef zeroext %1) #1 align 2 {
  %3 = alloca ptr, align 8
  %4 = alloca i8, align 1
  %5 = alloca ptr, align 8
  %6 = alloca ptr, align 8
  store ptr %0, ptr %3, align 8
  %7 = zext i1 %1 to i8
  store i8 %7, ptr %4, align 1
  %8 = load ptr, ptr %3, align 8
  store ptr %8, ptr %5, align 8
  br label %9

9:                                                ; preds = %30, %2
  %10 = load i8, ptr @PrintTieredEvents, align 1
  %11 = trunc i8 %10 to i1
  br i1 %11, label %12, label %17

12:                                               ; preds = %9
  %13 = load ptr, ptr %5, align 8
  %14 = call noundef ptr @_ZNK9ScopeDesc6methodEv(ptr noundef nonnull align 8 dereferenceable(56) %13)
  %15 = load ptr, ptr %5, align 8
  %16 = call noundef ptr @_ZNK9ScopeDesc6methodEv(ptr noundef nonnull align 8 dereferenceable(56) %15)
  call void @_ZN17CompilationPolicy11print_eventENS_9EventTypeEPK6MethodS3_i9CompLevel(i32 noundef 5, ptr noundef %14, ptr noundef %16, i32 noundef -1, i8 noundef signext 0)
  br label %17

17:                                               ; preds = %12, %9
  %18 = load ptr, ptr %5, align 8
  %19 = call noundef ptr @_ZNK9ScopeDesc6methodEv(ptr noundef nonnull align 8 dereferenceable(56) %18)
  %20 = call noundef ptr @_ZNK6Method11method_dataEv(ptr noundef nonnull align 8 dereferenceable(88) %19)
  store ptr %20, ptr %6, align 8
  %21 = load ptr, ptr %6, align 8
  %22 = icmp ne ptr %21, null
  br i1 %22, label %23, label %25

23:                                               ; preds = %17
  %24 = load ptr, ptr %6, align 8
  call void @_ZN10MethodData20reset_start_countersEv(ptr noundef nonnull align 8 dereferenceable(312) %24)
  br label %25

25:                                               ; preds = %23, %17
  %26 = load ptr, ptr %5, align 8
  %27 = call noundef zeroext i1 @_ZNK9ScopeDesc6is_topEv(ptr noundef nonnull align 8 dereferenceable(56) %26)
  br i1 %27, label %28, label %29

28:                                               ; preds = %25
  br label %33

29:                                               ; preds = %25
  br label %30

30:                                               ; preds = %29
  %31 = load ptr, ptr %5, align 8
  %32 = call noundef ptr @_ZNK9ScopeDesc6senderEv(ptr noundef nonnull align 8 dereferenceable(56) %31)
  store ptr %32, ptr %5, align 8
  br label %9, !llvm.loop !10

33:                                               ; preds = %28
  ret void
}