; Function Attrs: mustprogress nounwind uwtable
define hidden void @_ZN17CompilationPolicy9reprofileEP9ScopeDescb(ptr noundef %0, i1 noundef zeroext %1) local_unnamed_addr #0 align 2 {
  br label %3

3:                                                ; preds = %22, %2
  %.0 = phi ptr [ %0, %2 ], [ %23, %22 ]
  %4 = load i8, ptr @PrintTieredEvents, align 1
  %5 = trunc i8 %4 to i1
  br i1 %5, label %6, label %8

6:                                                ; preds = %3
  %7 = load ptr, ptr %.0, align 8
  tail call void @_ZN17CompilationPolicy11print_eventENS_9EventTypeEPK6MethodS3_i9CompLevel(i32 noundef 5, ptr noundef %7, ptr noundef %7, i32 noundef -1, i8 noundef signext 0)
  br label %8

8:                                                ; preds = %6, %3
  %9 = load ptr, ptr %.0, align 8
  %10 = getelementptr inbounds i8, ptr %9, i64 16
  %11 = load ptr, ptr %10, align 8
  %.not = icmp eq ptr %11, null
  br i1 %.not, label %20, label %12

12:                                               ; preds = %8
  %13 = getelementptr inbounds i8, ptr %11, i64 244
  %14 = getelementptr inbounds i8, ptr %11, i64 252
  %15 = load <2 x i32>, ptr %13, align 4
  %16 = and <2 x i32> %15, <i32 1, i32 1>
  %17 = icmp eq <2 x i32> %16, zeroinitializer
  %18 = lshr <2 x i32> %15, <i32 1, i32 1>
  %19 = select <2 x i1> %17, <2 x i32> %18, <2 x i32> <i32 1073741824, i32 1073741824>
  store <2 x i32> %19, ptr %14, align 4
  br label %20

20:                                               ; preds = %12, %8
  %21 = tail call noundef zeroext i1 @_ZNK9ScopeDesc6is_topEv(ptr noundef nonnull align 8 dereferenceable(56) %.0) #12
  br i1 %21, label %24, label %22

22:                                               ; preds = %20
  %23 = tail call noundef ptr @_ZNK9ScopeDesc6senderEv(ptr noundef nonnull align 8 dereferenceable(56) %.0) #12
  br label %3, !llvm.loop !13

24:                                               ; preds = %20
  ret void
}